; Function Attrs: mustprogress uwtable
define void @_ZN5Ipopt13TripletHelper11FillRowCol_EiRKNS_15TransposeMatrixEiiPiS4_(i32 noundef %0, ptr noundef nonnull readonly align 8 captures(none) dereferenceable(80) %1, i32 noundef %2, i32 noundef %3, ptr noundef writeonly captures(none) %4, ptr noundef writeonly captures(none) %5) local_unnamed_addr #0 align 2 personality ptr @__gxx_personality_v0 {
  %7 = getelementptr inbounds nuw i8, ptr %1, i64 72
  %8 = load ptr, ptr %7, align 8, !tbaa !102, !noalias !188
  %.not.i.i.i.i = icmp eq ptr %8, null
  br i1 %.not.i.i.i.i, label %_ZNK5Ipopt15TransposeMatrix10OrigMatrixEv.exit, label %9

9:                                                ; preds = %6
  %10 = getelementptr inbounds nuw i8, ptr %8, i64 8
  %11 = load i32, ptr %10, align 8, !tbaa !42, !noalias !188
  %12 = add nsw i32 %11, 1
  store i32 %12, ptr %10, align 8, !tbaa !42, !noalias !188
  br label %_ZNK5Ipopt15TransposeMatrix10OrigMatrixEv.exit

_ZNK5Ipopt15TransposeMatrix10OrigMatrixEv.exit:   ; preds = %6, %9
  invoke void @_ZN5Ipopt13TripletHelper10FillRowColEiRKNS_6MatrixEPiS4_ii(i32 noundef %0, ptr noundef nonnull align 8 dereferenceable(69) %8, ptr noundef %5, ptr noundef %4, i32 noundef %3, i32 noundef %2)
          to label %13 unwind label %22

13:                                               ; preds = %_ZNK5Ipopt15TransposeMatrix10OrigMatrixEv.exit
  %14 = getelementptr inbounds nuw i8, ptr %8, i64 8
  %15 = load i32, ptr %14, align 8, !tbaa !42
  %16 = add nsw i32 %15, -1
  store i32 %16, ptr %14, align 8, !tbaa !42
  %17 = icmp eq i32 %16, 0
  br i1 %17, label %18, label %_ZN5Ipopt8SmartPtrIKNS_6MatrixEED2Ev.exit

18:                                               ; preds = %13
  %19 = load ptr, ptr %8, align 8, !tbaa !43
  %20 = getelementptr inbounds nuw i8, ptr %19, i64 8
  %21 = load ptr, ptr %20, align 8
  tail call void %21(ptr noundef nonnull align 8 dereferenceable(69) %8) #17
  br label %_ZN5Ipopt8SmartPtrIKNS_6MatrixEED2Ev.exit

_ZN5Ipopt8SmartPtrIKNS_6MatrixEED2Ev.exit:        ; preds = %13, %18
  ret void

22:                                               ; preds = %_ZNK5Ipopt15TransposeMatrix10OrigMatrixEv.exit
  %23 = landingpad { ptr, i32 }
          cleanup
  %24 = getelementptr inbounds nuw i8, ptr %8, i64 8
  %25 = load i32, ptr %24, align 8, !tbaa !42
  %26 = add nsw i32 %25, -1
  store i32 %26, ptr %24, align 8, !tbaa !42
  %27 = icmp eq i32 %26, 0
  br i1 %27, label %28, label %_ZN5Ipopt8SmartPtrIKNS_6MatrixEED2Ev.exit8

28:                                               ; preds = %22
  %29 = load ptr, ptr %8, align 8, !tbaa !43
  %30 = getelementptr inbounds nuw i8, ptr %29, i64 8
  %31 = load ptr, ptr %30, align 8
  tail call void %31(ptr noundef nonnull align 8 dereferenceable(69) %8) #17
  br label %_ZN5Ipopt8SmartPtrIKNS_6MatrixEED2Ev.exit8

_ZN5Ipopt8SmartPtrIKNS_6MatrixEED2Ev.exit8:       ; preds = %22, %28
  resume { ptr, i32 } %23
}